; Function Attrs: nounwind uwtable
define dso_local noundef i32 @acct_gather_energy_g_conf_values(ptr noundef %0) local_unnamed_addr #0 {
  %2 = load i32, ptr @g_context_num, align 4
  %.not = icmp eq i32 %2, 0
  br i1 %.not, label %25, label %3

3:                                                ; preds = %1
  %4 = tail call i32 @pthread_mutex_lock(ptr noundef nonnull @g_context_lock) #8
  %.not11 = icmp eq i32 %4, 0
  br i1 %.not11, label %.preheader, label %7

.preheader:                                       ; preds = %3
  %5 = load i32, ptr @g_context_num, align 4
  %6 = icmp sgt i32 %5, 0
  br i1 %6, label %.lr.ph.preheader, label %._crit_edge

.lr.ph.preheader:                                 ; preds = %.preheader
  %.pre16 = load ptr, ptr @g_context, align 8
  br label %.lr.ph

7:                                                ; preds = %3
  %8 = tail call ptr @__errno_location() #9
  store i32 %4, ptr %8, align 4
  tail call void (ptr, ...) @fatal_abort(ptr noundef nonnull @.str.1, ptr noundef nonnull @__func__.acct_gather_energy_g_conf_values) #10
  unreachable

._crit_edge:                                      ; preds = %18, %.preheader
  %9 = tail call i32 @pthread_mutex_unlock(ptr noundef nonnull @g_context_lock) #8
  %.not12 = icmp eq i32 %9, 0
  br i1 %.not12, label %25, label %23

.lr.ph:                                           ; preds = %.lr.ph.preheader, %18
  %10 = phi i32 [ %5, %.lr.ph.preheader ], [ %19, %18 ]
  %11 = phi ptr [ %.pre16, %.lr.ph.preheader ], [ %20, %18 ]
  %indvars.iv = phi i64 [ 0, %.lr.ph.preheader ], [ %indvars.iv.next, %18 ]
  %12 = getelementptr inbounds nuw ptr, ptr %11, i64 %indvars.iv
  %13 = load ptr, ptr %12, align 8
  %.not13 = icmp eq ptr %13, null
  br i1 %.not13, label %18, label %14

14:                                               ; preds = %.lr.ph
  %15 = load ptr, ptr @ops, align 8
  %16 = getelementptr inbounds nuw %struct.slurm_acct_gather_energy_ops, ptr %15, i64 %indvars.iv, i32 5
  %17 = load ptr, ptr %16, align 8
  tail call void %17(ptr noundef %0) #8
  %.pre = load ptr, ptr @g_context, align 8
  %.pre17 = load i32, ptr @g_context_num, align 4
  br label %18

18:                                               ; preds = %.lr.ph, %14
  %19 = phi i32 [ %10, %.lr.ph ], [ %.pre17, %14 ]
  %20 = phi ptr [ %11, %.lr.ph ], [ %.pre, %14 ]
  %indvars.iv.next = add nuw nsw i64 %indvars.iv, 1
  %21 = sext i32 %19 to i64
  %22 = icmp slt i64 %indvars.iv.next, %21
  br i1 %22, label %.lr.ph, label %._crit_edge, !llvm.loop !19

23:                                               ; preds = %._crit_edge
  %24 = tail call ptr @__errno_location() #9
  store i32 %9, ptr %24, align 4
  tail call void (ptr, ...) @fatal_abort(ptr noundef nonnull @.str.7, ptr noundef nonnull @__func__.acct_gather_energy_g_conf_values) #10
  unreachable

25:                                               ; preds = %._crit_edge, %1
  ret i32 0
}